target datalayout = "e-m:e-p270:32:32-p271:32:32-p272:64:64-i64:64-i128:128-f80:128-n8:16:32:64-S128"
target triple = "x86_64-pc-linux-gnu"

%struct.GCRef = type { i64 }
%struct.GCstr = type { %struct.GCRef, i8, i8, i8, i8, i32, i32, i32 }
%struct.jit_State = type { %struct.GCtrace, ptr, ptr, ptr, ptr, ptr, ptr, i32, i32, i32, i8, i8, %struct.IRType1, i8, %struct.FoldState, ptr, i32, i32, i32, i32, i32, i32, i32, [1 x i32], [5 x %union.TValue], [3 x %union.TValue], ptr, i32, i32, i32, i32, ptr, ptr, i32, i32, i8, ptr, i32, i32, i16, [101 x i16], [258 x i32], [15 x i32], [16 x ptr], [64 x %struct.HotPenalty], i32, [16 x %struct.BPropEntry], i32, %struct.ScEvEntry, ptr, i32, i32, i32, ptr, i32, i32, ptr, ptr, ptr, i64, i64, %union.TValue, ptr, i32, i32 }
%struct.GCtrace = type { %struct.GCRef, i8, i8, i16, i32, i32, %struct.GCRef, ptr, i32, i32, ptr, ptr, %struct.GCRef, %struct.MRef, i32, i32, ptr, i32, i16, i16, i16, i16, i16, i16, i16, i8, i8, i8, i8 }
%struct.MRef = type { i64 }
%struct.IRType1 = type { i8 }
%struct.FoldState = type { %union.IRIns, [2 x %union.IRIns], [2 x %union.IRIns] }
%union.IRIns = type { %struct.GCRef }
%struct.HotPenalty = type { %struct.MRef, i16, i16 }
%struct.BPropEntry = type { i16, i16, i32 }
%struct.ScEvEntry = type { %struct.MRef, i16, i16, i16, i16, %struct.IRType1, i8 }
%union.TValue = type { i64 }
%struct.anon.2 = type { i16, i16, i16, i16 }
%struct.lua_State = type { %struct.GCRef, i8, i8, i8, i8, %struct.MRef, %struct.GCRef, ptr, ptr, %struct.MRef, %struct.MRef, %struct.GCRef, %struct.GCRef, ptr, i32 }
%struct.GG_State = type { %struct.lua_State, %struct.global_State, %struct.jit_State, [64 x i16], [243 x ptr], [57 x i32] }
%struct.global_State = type { ptr, ptr, %struct.GCState, %struct.GCstr, i8, i8, i8, i8, %struct.StrInternState, i32, %struct.GCRef, %struct.SBuf, %union.TValue, %union.TValue, %struct.Node, %union.TValue, %struct.GCupval, i32, i32, ptr, ptr, ptr, i32, i32, %struct.GCRef, %struct.MRef, %struct.MRef, %struct.PRNGState, [39 x %struct.GCRef] }
%struct.GCState = type { i64, i64, i8, i8, i8, i8, i32, %struct.GCRef, %struct.MRef, %struct.GCRef, %struct.GCRef, %struct.GCRef, %struct.GCRef, i64, i64, i32, i32, %struct.MRef }
%struct.StrInternState = type { ptr, i32, i32, i32, i8, i8, i8, i8, i64 }
%struct.SBuf = type { ptr, ptr, ptr, %struct.MRef }
%struct.Node = type { %union.TValue, %union.TValue, %struct.MRef }
%struct.GCupval = type { %struct.GCRef, i8, i8, i8, i8, %union.anon, %struct.MRef, i32 }
%union.anon = type { %struct.anon.1 }
%struct.anon.1 = type { %struct.GCRef, %struct.GCRef }
%struct.PRNGState = type { [4 x i64] }

; Function Attrs: nounwind uwtable
define internal i32 @recff_bufhdr(ptr noundef %0) #0 {
  %2 = alloca ptr, align 8
  store ptr %0, ptr %2, align 8, !tbaa !4
  %3 = load ptr, ptr %2, align 8, !tbaa !4
  %4 = load ptr, ptr %2, align 8, !tbaa !4
  %5 = load ptr, ptr %2, align 8, !tbaa !4
  %6 = getelementptr inbounds i8, ptr %5, i64 -832
  %7 = getelementptr inbounds nuw %struct.GG_State, ptr %6, i32 0, i32 1
  %8 = getelementptr inbounds nuw %struct.global_State, ptr %7, i32 0, i32 11
  %9 = call i32 @lj_ir_kptr_(ptr noundef %4, i32 noundef 25, ptr noundef %8)
  %10 = trunc i32 %9 to i16
  call void @lj_ir_set_(ptr noundef %3, i16 noundef zeroext 21769, i16 noundef zeroext %10, i16 noundef zeroext 0)
  %11 = load ptr, ptr %2, align 8, !tbaa !4
  %12 = call i32 @lj_opt_fold(ptr noundef %11)
  ret i32 %12
}

; Function Attrs: alwaysinline nounwind uwtable
define internal void @lj_ir_set_(ptr noundef %0, i16 noundef zeroext %1, i16 noundef zeroext %2, i16 noundef zeroext %3) #1 {
  %5 = alloca ptr, align 8
  %6 = alloca i16, align 2
  %7 = alloca i16, align 2
  %8 = alloca i16, align 2
  store ptr %0, ptr %5, align 8, !tbaa !4
  store i16 %1, ptr %6, align 2, !tbaa !14
  store i16 %2, ptr %7, align 2, !tbaa !14
  store i16 %3, ptr %8, align 2, !tbaa !14
  %9 = load i16, ptr %6, align 2, !tbaa !14
  %10 = load ptr, ptr %5, align 8, !tbaa !4
  %11 = getelementptr inbounds nuw %struct.jit_State, ptr %10, i32 0, i32 14
  %12 = getelementptr inbounds nuw %struct.FoldState, ptr %11, i32 0, i32 0
  %13 = getelementptr inbounds nuw %struct.anon.2, ptr %12, i32 0, i32 2
  store i16 %9, ptr %13, align 4, !tbaa !13
  %14 = load i16, ptr %7, align 2, !tbaa !14
  %15 = load ptr, ptr %5, align 8, !tbaa !4
  %16 = getelementptr inbounds nuw %struct.jit_State, ptr %15, i32 0, i32 14
  %17 = getelementptr inbounds nuw %struct.FoldState, ptr %16, i32 0, i32 0
  %18 = getelementptr inbounds nuw %struct.anon.2, ptr %17, i32 0, i32 0
  store i16 %14, ptr %18, align 8, !tbaa !13
  %19 = load i16, ptr %8, align 2, !tbaa !14
  %20 = load ptr, ptr %5, align 8, !tbaa !4
  %21 = getelementptr inbounds nuw %struct.jit_State, ptr %20, i32 0, i32 14
  %22 = getelementptr inbounds nuw %struct.FoldState, ptr %21, i32 0, i32 0
  %23 = getelementptr inbounds nuw %struct.anon.2, ptr %22, i32 0, i32 1
  store i16 %19, ptr %23, align 2, !tbaa !13
  ret void
}

; Function Attrs: nounwind uwtable
define internal void @recff_table_concat(ptr noundef %0, ptr noundef %1) #0 {
  %3 = alloca ptr, align 8
  %4 = alloca ptr, align 8
  %5 = alloca i32, align 4
  %6 = alloca i32, align 4
  %7 = alloca i32, align 4
  %8 = alloca i32, align 4
  %9 = alloca i32, align 4
  %10 = alloca i32, align 4
  store ptr %0, ptr %3, align 8, !tbaa !4
  store ptr %1, ptr %4, align 8, !tbaa !46
  call void @llvm.lifetime.start.p0(i64 4, ptr %5) #9
  %11 = load ptr, ptr %3, align 8, !tbaa !4
  %12 = getelementptr inbounds nuw %struct.jit_State, ptr %11, i32 0, i32 6
  %13 = load ptr, ptr %12, align 8, !tbaa !41
  %14 = getelementptr inbounds i32, ptr %13, i64 0
  %15 = load i32, ptr %14, align 4, !tbaa !9
  store i32 %15, ptr %5, align 4, !tbaa !9
  %16 = load i32, ptr %5, align 4, !tbaa !9
  %17 = and i32 %16, 520093696
  %18 = icmp eq i32 %17, 184549376
  br i1 %18, label %19, label %132

19:                                               ; preds = %2
  call void @llvm.lifetime.start.p0(i64 4, ptr %6) #9
  %20 = load ptr, ptr %3, align 8, !tbaa !4
  %21 = getelementptr inbounds nuw %struct.jit_State, ptr %20, i32 0, i32 6
  %22 = load ptr, ptr %21, align 8, !tbaa !41
  %23 = getelementptr inbounds i32, ptr %22, i64 1
  %24 = load i32, ptr %23, align 4, !tbaa !9
  %25 = and i32 %24, 520093696
  %26 = icmp eq i32 %25, 0
  br i1 %26, label %35, label %27

27:                                               ; preds = %19
  %28 = load ptr, ptr %3, align 8, !tbaa !4
  %29 = load ptr, ptr %3, align 8, !tbaa !4
  %30 = getelementptr inbounds nuw %struct.jit_State, ptr %29, i32 0, i32 6
  %31 = load ptr, ptr %30, align 8, !tbaa !41
  %32 = getelementptr inbounds i32, ptr %31, i64 1
  %33 = load i32, ptr %32, align 4, !tbaa !9
  %34 = call i32 @lj_ir_tostr(ptr noundef %28, i32 noundef %33)
  br label %38

35:                                               ; preds = %19
  %36 = load ptr, ptr %3, align 8, !tbaa !4
  %37 = call i32 @lj_ir_knull(ptr noundef %36, i32 noundef 4)
  br label %38

38:                                               ; preds = %35, %27
  %39 = phi i32 [ %34, %27 ], [ %37, %35 ]
  store i32 %39, ptr %6, align 4, !tbaa !9
  call void @llvm.lifetime.start.p0(i64 4, ptr %7) #9
  %40 = load ptr, ptr %3, align 8, !tbaa !4
  %41 = getelementptr inbounds nuw %struct.jit_State, ptr %40, i32 0, i32 6
  %42 = load ptr, ptr %41, align 8, !tbaa !41
  %43 = getelementptr inbounds i32, ptr %42, i64 1
  %44 = load i32, ptr %43, align 4, !tbaa !9
  %45 = icmp ne i32 %44, 0
  br i1 %45, label %46, label %62

46:                                               ; preds = %38
  %47 = load ptr, ptr %3, align 8, !tbaa !4
  %48 = getelementptr inbounds nuw %struct.jit_State, ptr %47, i32 0, i32 6
  %49 = load ptr, ptr %48, align 8, !tbaa !41
  %50 = getelementptr inbounds i32, ptr %49, i64 2
  %51 = load i32, ptr %50, align 4, !tbaa !9
  %52 = and i32 %51, 520093696
  %53 = icmp eq i32 %52, 0
  br i1 %53, label %62, label %54

54:                                               ; preds = %46
  %55 = load ptr, ptr %3, align 8, !tbaa !4
  %56 = load ptr, ptr %3, align 8, !tbaa !4
  %57 = getelementptr inbounds nuw %struct.jit_State, ptr %56, i32 0, i32 6
  %58 = load ptr, ptr %57, align 8, !tbaa !41
  %59 = getelementptr inbounds i32, ptr %58, i64 2
  %60 = load i32, ptr %59, align 4, !tbaa !9
  %61 = call i32 @lj_opt_narrow_toint(ptr noundef %55, i32 noundef %60)
  br label %65

62:                                               ; preds = %46, %38
  %63 = load ptr, ptr %3, align 8, !tbaa !4
  %64 = call i32 @lj_ir_kint(ptr noundef %63, i32 noundef 1)
  br label %65

65:                                               ; preds = %62, %54
  %66 = phi i32 [ %61, %54 ], [ %64, %62 ]
  store i32 %66, ptr %7, align 4, !tbaa !9
  call void @llvm.lifetime.start.p0(i64 4, ptr %8) #9
  %67 = load ptr, ptr %3, align 8, !tbaa !4
  %68 = getelementptr inbounds nuw %struct.jit_State, ptr %67, i32 0, i32 6
  %69 = load ptr, ptr %68, align 8, !tbaa !41
  %70 = getelementptr inbounds i32, ptr %69, i64 1
  %71 = load i32, ptr %70, align 4, !tbaa !9
  %72 = icmp ne i32 %71, 0
  br i1 %72, label %73, label %96

73:                                               ; preds = %65
  %74 = load ptr, ptr %3, align 8, !tbaa !4
  %75 = getelementptr inbounds nuw %struct.jit_State, ptr %74, i32 0, i32 6
  %76 = load ptr, ptr %75, align 8, !tbaa !41
  %77 = getelementptr inbounds i32, ptr %76, i64 2
  %78 = load i32, ptr %77, align 4, !tbaa !9
  %79 = icmp ne i32 %78, 0
  br i1 %79, label %80, label %96

80:                                               ; preds = %73
  %81 = load ptr, ptr %3, align 8, !tbaa !4
  %82 = getelementptr inbounds nuw %struct.jit_State, ptr %81, i32 0, i32 6
  %83 = load ptr, ptr %82, align 8, !tbaa !41
  %84 = getelementptr inbounds i32, ptr %83, i64 3
  %85 = load i32, ptr %84, align 4, !tbaa !9
  %86 = and i32 %85, 520093696
  %87 = icmp eq i32 %86, 0
  br i1 %87, label %96, label %88

88:                                               ; preds = %80
  %89 = load ptr, ptr %3, align 8, !tbaa !4
  %90 = load ptr, ptr %3, align 8, !tbaa !4
  %91 = getelementptr inbounds nuw %struct.jit_State, ptr %90, i32 0, i32 6
  %92 = load ptr, ptr %91, align 8, !tbaa !41
  %93 = getelementptr inbounds i32, ptr %92, i64 3
  %94 = load i32, ptr %93, align 4, !tbaa !9
  %95 = call i32 @lj_opt_narrow_toint(ptr noundef %89, i32 noundef %94)
  br label %102

96:                                               ; preds = %80, %73, %65
  %97 = load ptr, ptr %3, align 8, !tbaa !4
  %98 = load i32, ptr %5, align 4, !tbaa !9
  %99 = trunc i32 %98 to i16
  call void @lj_ir_set_(ptr noundef %97, i16 noundef zeroext 18707, i16 noundef zeroext %99, i16 noundef zeroext 32767)
  %100 = load ptr, ptr %3, align 8, !tbaa !4
  %101 = call i32 @lj_opt_fold(ptr noundef %100)
  br label %102

102:                                              ; preds = %96, %88
  %103 = phi i32 [ %95, %88 ], [ %101, %96 ]
  store i32 %103, ptr %8, align 4, !tbaa !9
  call void @llvm.lifetime.start.p0(i64 4, ptr %9) #9
  %104 = load ptr, ptr %3, align 8, !tbaa !4
  %105 = call i32 @recff_bufhdr(ptr noundef %104)
  store i32 %105, ptr %9, align 4, !tbaa !9
  call void @llvm.lifetime.start.p0(i64 4, ptr %10) #9
  %106 = load ptr, ptr %3, align 8, !tbaa !4
  %107 = load i32, ptr %9, align 4, !tbaa !9
  %108 = load i32, ptr %5, align 4, !tbaa !9
  %109 = load i32, ptr %6, align 4, !tbaa !9
  %110 = load i32, ptr %7, align 4, !tbaa !9
  %111 = load i32, ptr %8, align 4, !tbaa !9
  %112 = call i32 (ptr, i32, ...) @lj_ir_call(ptr noundef %106, i32 noundef 23, i32 noundef %107, i32 noundef %108, i32 noundef %109, i32 noundef %110, i32 noundef %111)
  store i32 %112, ptr %10, align 4, !tbaa !9
  %113 = load ptr, ptr %3, align 8, !tbaa !4
  %114 = load i32, ptr %10, align 4, !tbaa !9
  %115 = trunc i32 %114 to i16
  %116 = load ptr, ptr %3, align 8, !tbaa !4
  %117 = call i32 @lj_ir_kptr_(ptr noundef %116, i32 noundef 25, ptr noundef null)
  %118 = trunc i32 %117 to i16
  call void @lj_ir_set_(ptr noundef %113, i16 noundef zeroext 2441, i16 noundef zeroext %115, i16 noundef zeroext %118)
  %119 = load ptr, ptr %3, align 8, !tbaa !4
  %120 = call i32 @lj_opt_fold(ptr noundef %119)
  %121 = load ptr, ptr %3, align 8, !tbaa !4
  %122 = load i32, ptr %10, align 4, !tbaa !9
  %123 = trunc i32 %122 to i16
  %124 = load i32, ptr %9, align 4, !tbaa !9
  %125 = trunc i32 %124 to i16
  call void @lj_ir_set_(ptr noundef %121, i16 noundef zeroext 22404, i16 noundef zeroext %123, i16 noundef zeroext %125)
  %126 = load ptr, ptr %3, align 8, !tbaa !4
  %127 = call i32 @lj_opt_fold(ptr noundef %126)
  %128 = load ptr, ptr %3, align 8, !tbaa !4
  %129 = getelementptr inbounds nuw %struct.jit_State, ptr %128, i32 0, i32 6
  %130 = load ptr, ptr %129, align 8, !tbaa !41
  %131 = getelementptr inbounds i32, ptr %130, i64 0
  store i32 %127, ptr %131, align 4, !tbaa !9
  call void @llvm.lifetime.end.p0(i64 4, ptr %10) #9
  call void @llvm.lifetime.end.p0(i64 4, ptr %9) #9
  call void @llvm.lifetime.end.p0(i64 4, ptr %8) #9
  call void @llvm.lifetime.end.p0(i64 4, ptr %7) #9
  call void @llvm.lifetime.end.p0(i64 4, ptr %6) #9
  br label %132

132:                                              ; preds = %102, %2
  call void @llvm.lifetime.end.p0(i64 4, ptr %5) #9
  ret void
}