; Function Attrs: nounwind uwtable
define internal void @recff_table_concat(ptr noundef %0, ptr readnone captures(none) %1) #0 {
  %3 = getelementptr inbounds nuw i8, ptr %0, i64 160
  %4 = load ptr, ptr %3, align 8, !tbaa !37
  %5 = load i32, ptr %4, align 4, !tbaa !39
  %6 = and i32 %5, 520093696
  %7 = icmp eq i32 %6, 184549376
  br i1 %7, label %8, label %69

8:                                                ; preds = %2
  %9 = getelementptr inbounds nuw i8, ptr %4, i64 4
  %10 = load i32, ptr %9, align 4, !tbaa !39
  %11 = and i32 %10, 520093696
  %12 = icmp eq i32 %11, 0
  br i1 %12, label %15, label %13

13:                                               ; preds = %8
  %14 = tail call i32 @lj_ir_tostr(ptr noundef nonnull %0, i32 noundef %10) #9
  br label %17

15:                                               ; preds = %8
  %16 = tail call i32 @lj_ir_knull(ptr noundef nonnull %0, i32 noundef 4) #9
  br label %17

17:                                               ; preds = %15, %13
  %18 = phi i32 [ %14, %13 ], [ %16, %15 ]
  %19 = load ptr, ptr %3, align 8, !tbaa !37
  %20 = getelementptr inbounds nuw i8, ptr %19, i64 4
  %21 = load i32, ptr %20, align 4, !tbaa !39
  %.not = icmp eq i32 %21, 0
  br i1 %.not, label %29, label %22

22:                                               ; preds = %17
  %23 = getelementptr inbounds nuw i8, ptr %19, i64 8
  %24 = load i32, ptr %23, align 4, !tbaa !39
  %25 = and i32 %24, 520093696
  %26 = icmp eq i32 %25, 0
  br i1 %26, label %29, label %27

27:                                               ; preds = %22
  %28 = tail call i32 @lj_opt_narrow_toint(ptr noundef nonnull %0, i32 noundef %24) #9
  br label %31

29:                                               ; preds = %22, %17
  %30 = tail call i32 @lj_ir_kint(ptr noundef nonnull %0, i32 noundef 1) #9
  br label %31

31:                                               ; preds = %29, %27
  %32 = phi i32 [ %28, %27 ], [ %30, %29 ]
  %33 = load ptr, ptr %3, align 8, !tbaa !37
  %34 = getelementptr inbounds nuw i8, ptr %33, i64 4
  %35 = load i32, ptr %34, align 4, !tbaa !39
  %.not34 = icmp eq i32 %35, 0
  br i1 %.not34, label %46, label %36

36:                                               ; preds = %31
  %37 = getelementptr inbounds nuw i8, ptr %33, i64 8
  %38 = load i32, ptr %37, align 4, !tbaa !39
  %.not35 = icmp eq i32 %38, 0
  br i1 %.not35, label %46, label %39

39:                                               ; preds = %36
  %40 = getelementptr inbounds nuw i8, ptr %33, i64 12
  %41 = load i32, ptr %40, align 4, !tbaa !39
  %42 = and i32 %41, 520093696
  %43 = icmp eq i32 %42, 0
  br i1 %43, label %46, label %44

44:                                               ; preds = %39
  %45 = tail call i32 @lj_opt_narrow_toint(ptr noundef nonnull %0, i32 noundef %41) #9
  br label %52

46:                                               ; preds = %39, %36, %31
  %47 = trunc i32 %5 to i16
  %48 = getelementptr inbounds nuw i8, ptr %0, i64 184
  %49 = getelementptr inbounds nuw i8, ptr %0, i64 188
  store i16 18707, ptr %49, align 4, !tbaa !4
  store i16 %47, ptr %48, align 8, !tbaa !4
  %50 = getelementptr inbounds nuw i8, ptr %0, i64 186
  store i16 32767, ptr %50, align 2, !tbaa !4
  %51 = tail call i32 @lj_opt_fold(ptr noundef nonnull %0) #9
  br label %52

52:                                               ; preds = %46, %44
  %53 = phi i32 [ %45, %44 ], [ %51, %46 ]
  %54 = getelementptr inbounds i8, ptr %0, i64 -536
  %55 = tail call i32 @lj_ir_kptr_(ptr noundef nonnull %0, i32 noundef 25, ptr noundef nonnull %54) #9
  %56 = trunc i32 %55 to i16
  %57 = getelementptr inbounds nuw i8, ptr %0, i64 184
  %58 = getelementptr inbounds nuw i8, ptr %0, i64 188
  store i16 21769, ptr %58, align 4, !tbaa !4
  store i16 %56, ptr %57, align 8, !tbaa !4
  %59 = getelementptr inbounds nuw i8, ptr %0, i64 186
  store i16 0, ptr %59, align 2, !tbaa !4
  %60 = tail call i32 @lj_opt_fold(ptr noundef nonnull %0) #9
  %61 = tail call i32 (ptr, i32, ...) @lj_ir_call(ptr noundef nonnull %0, i32 noundef 23, i32 noundef %60, i32 noundef %5, i32 noundef %18, i32 noundef %32, i32 noundef %53) #9
  %62 = trunc i32 %61 to i16
  %63 = tail call i32 @lj_ir_kptr_(ptr noundef nonnull %0, i32 noundef 25, ptr noundef null) #9
  %64 = trunc i32 %63 to i16
  store i16 2441, ptr %58, align 4, !tbaa !4
  store i16 %62, ptr %57, align 8, !tbaa !4
  store i16 %64, ptr %59, align 2, !tbaa !4
  %65 = tail call i32 @lj_opt_fold(ptr noundef nonnull %0) #9
  %66 = trunc i32 %60 to i16
  store i16 22404, ptr %58, align 4, !tbaa !4
  store i16 %62, ptr %57, align 8, !tbaa !4
  store i16 %66, ptr %59, align 2, !tbaa !4
  %67 = tail call i32 @lj_opt_fold(ptr noundef nonnull %0) #9
  %68 = load ptr, ptr %3, align 8, !tbaa !37
  store i32 %67, ptr %68, align 4, !tbaa !39
  br label %69

69:                                               ; preds = %52, %2
  ret void
}